target datalayout = "e-m:e-p270:32:32-p271:32:32-p272:64:64-i64:64-i128:128-f80:128-n8:16:32:64-S128"
target triple = "x86_64-pc-linux-gnu"

%"class.cv::Rect_" = type { i32, i32, i32, i32 }
%"class.cv::detail::tracking::contrib_feature::CvHOGEvaluator::Feature" = type { [4 x %"class.cv::Rect_"], [4 x %struct.anon] }
%struct.anon = type { i32, i32, i32, i32 }

; Function Attrs: inlinehint mustprogress nounwind uwtable
define linkonce_odr hidden void @_ZN2cv5Rect_IiEC2Eiiii(ptr noundef nonnull align 4 dereferenceable(16) %0, i32 noundef %1, i32 noundef %2, i32 noundef %3, i32 noundef %4) unnamed_addr #10 comdat align 2 {
  %6 = alloca ptr, align 8
  %7 = alloca i32, align 4
  %8 = alloca i32, align 4
  %9 = alloca i32, align 4
  %10 = alloca i32, align 4
  store ptr %0, ptr %6, align 8, !tbaa !144
  store i32 %1, ptr %7, align 4, !tbaa !42
  store i32 %2, ptr %8, align 4, !tbaa !42
  store i32 %3, ptr %9, align 4, !tbaa !42
  store i32 %4, ptr %10, align 4, !tbaa !42
  %11 = load ptr, ptr %6, align 8
  %12 = getelementptr inbounds nuw %"class.cv::Rect_", ptr %11, i32 0, i32 0
  %13 = load i32, ptr %7, align 4, !tbaa !42
  store i32 %13, ptr %12, align 4, !tbaa !138
  %14 = getelementptr inbounds nuw %"class.cv::Rect_", ptr %11, i32 0, i32 1
  %15 = load i32, ptr %8, align 4, !tbaa !42
  store i32 %15, ptr %14, align 4, !tbaa !140
  %16 = getelementptr inbounds nuw %"class.cv::Rect_", ptr %11, i32 0, i32 2
  %17 = load i32, ptr %9, align 4, !tbaa !42
  store i32 %17, ptr %16, align 4, !tbaa !141
  %18 = getelementptr inbounds nuw %"class.cv::Rect_", ptr %11, i32 0, i32 3
  %19 = load i32, ptr %10, align 4, !tbaa !42
  store i32 %19, ptr %18, align 4, !tbaa !142
  ret void
}

; Function Attrs: inlinehint mustprogress nounwind uwtable
define linkonce_odr hidden void @_ZN2cv5Rect_IiEC2Ev(ptr noundef nonnull align 4 dereferenceable(16) %0) unnamed_addr #10 comdat align 2 {
  %2 = alloca ptr, align 8
  store ptr %0, ptr %2, align 8, !tbaa !144
  %3 = load ptr, ptr %2, align 8
  %4 = getelementptr inbounds nuw %"class.cv::Rect_", ptr %3, i32 0, i32 0
  store i32 0, ptr %4, align 4, !tbaa !138
  %5 = getelementptr inbounds nuw %"class.cv::Rect_", ptr %3, i32 0, i32 1
  store i32 0, ptr %5, align 4, !tbaa !140
  %6 = getelementptr inbounds nuw %"class.cv::Rect_", ptr %3, i32 0, i32 2
  store i32 0, ptr %6, align 4, !tbaa !141
  %7 = getelementptr inbounds nuw %"class.cv::Rect_", ptr %3, i32 0, i32 3
  store i32 0, ptr %7, align 4, !tbaa !142
  ret void
}

; Function Attrs: mustprogress uwtable
define hidden void @_ZN2cv6detail8tracking15contrib_feature14CvHOGEvaluator7FeatureC2Eiiiii(ptr noundef nonnull align 4 dereferenceable(128) %0, i32 noundef %1, i32 noundef %2, i32 noundef %3, i32 noundef %4, i32 noundef %5) unnamed_addr #4 align 2 {
  %7 = alloca ptr, align 8
  %8 = alloca i32, align 4
  %9 = alloca i32, align 4
  %10 = alloca i32, align 4
  %11 = alloca i32, align 4
  %12 = alloca i32, align 4
  %13 = alloca %"class.cv::Rect_", align 4
  %14 = alloca %"class.cv::Rect_", align 4
  %15 = alloca %"class.cv::Rect_", align 4
  %16 = alloca %"class.cv::Rect_", align 4
  %17 = alloca i32, align 4
  store ptr %0, ptr %7, align 8, !tbaa !182
  store i32 %1, ptr %8, align 4, !tbaa !42
  store i32 %2, ptr %9, align 4, !tbaa !42
  store i32 %3, ptr %10, align 4, !tbaa !42
  store i32 %4, ptr %11, align 4, !tbaa !42
  store i32 %5, ptr %12, align 4, !tbaa !42
  %18 = load ptr, ptr %7, align 8
  %19 = getelementptr inbounds nuw %"class.cv::detail::tracking::contrib_feature::CvHOGEvaluator::Feature", ptr %18, i32 0, i32 0
  %20 = getelementptr inbounds [4 x %"class.cv::Rect_"], ptr %19, i32 0, i32 0
  %21 = getelementptr inbounds %"class.cv::Rect_", ptr %20, i64 4
  br label %22

22:                                               ; preds = %22, %6
  %23 = phi ptr [ %20, %6 ], [ %24, %22 ]
  call void @_ZN2cv5Rect_IiEC2Ev(ptr noundef nonnull align 4 dereferenceable(16) %23)
  %24 = getelementptr inbounds %"class.cv::Rect_", ptr %23, i64 1
  %25 = icmp eq ptr %24, %21
  br i1 %25, label %26, label %22

26:                                               ; preds = %22
  call void @llvm.lifetime.start.p0(i64 16, ptr %13) #3
  %27 = load i32, ptr %9, align 4, !tbaa !42
  %28 = load i32, ptr %10, align 4, !tbaa !42
  %29 = load i32, ptr %11, align 4, !tbaa !42
  %30 = load i32, ptr %12, align 4, !tbaa !42
  call void @_ZN2cv5Rect_IiEC2Eiiii(ptr noundef nonnull align 4 dereferenceable(16) %13, i32 noundef %27, i32 noundef %28, i32 noundef %29, i32 noundef %30)
  %31 = getelementptr inbounds nuw %"class.cv::detail::tracking::contrib_feature::CvHOGEvaluator::Feature", ptr %18, i32 0, i32 0
  %32 = getelementptr inbounds [4 x %"class.cv::Rect_"], ptr %31, i64 0, i64 0
  call void @llvm.memcpy.p0.p0.i64(ptr align 4 %32, ptr align 4 %13, i64 16, i1 false), !tbaa.struct !158
  call void @llvm.lifetime.end.p0(i64 16, ptr %13) #3
  call void @llvm.lifetime.start.p0(i64 16, ptr %14) #3
  %33 = load i32, ptr %9, align 4, !tbaa !42
  %34 = load i32, ptr %11, align 4, !tbaa !42
  %35 = add nsw i32 %33, %34
  %36 = load i32, ptr %10, align 4, !tbaa !42
  %37 = load i32, ptr %11, align 4, !tbaa !42
  %38 = load i32, ptr %12, align 4, !tbaa !42
  call void @_ZN2cv5Rect_IiEC2Eiiii(ptr noundef nonnull align 4 dereferenceable(16) %14, i32 noundef %35, i32 noundef %36, i32 noundef %37, i32 noundef %38)
  %39 = getelementptr inbounds nuw %"class.cv::detail::tracking::contrib_feature::CvHOGEvaluator::Feature", ptr %18, i32 0, i32 0
  %40 = getelementptr inbounds [4 x %"class.cv::Rect_"], ptr %39, i64 0, i64 1
  call void @llvm.memcpy.p0.p0.i64(ptr align 4 %40, ptr align 4 %14, i64 16, i1 false), !tbaa.struct !158
  call void @llvm.lifetime.end.p0(i64 16, ptr %14) #3
  call void @llvm.lifetime.start.p0(i64 16, ptr %15) #3
  %41 = load i32, ptr %9, align 4, !tbaa !42
  %42 = load i32, ptr %10, align 4, !tbaa !42
  %43 = load i32, ptr %12, align 4, !tbaa !42
  %44 = add nsw i32 %42, %43
  %45 = load i32, ptr %11, align 4, !tbaa !42
  %46 = load i32, ptr %12, align 4, !tbaa !42
  call void @_ZN2cv5Rect_IiEC2Eiiii(ptr noundef nonnull align 4 dereferenceable(16) %15, i32 noundef %41, i32 noundef %44, i32 noundef %45, i32 noundef %46)
  %47 = getelementptr inbounds nuw %"class.cv::detail::tracking::contrib_feature::CvHOGEvaluator::Feature", ptr %18, i32 0, i32 0
  %48 = getelementptr inbounds [4 x %"class.cv::Rect_"], ptr %47, i64 0, i64 2
  call void @llvm.memcpy.p0.p0.i64(ptr align 4 %48, ptr align 4 %15, i64 16, i1 false), !tbaa.struct !158
  call void @llvm.lifetime.end.p0(i64 16, ptr %15) #3
  call void @llvm.lifetime.start.p0(i64 16, ptr %16) #3
  %49 = load i32, ptr %9, align 4, !tbaa !42
  %50 = load i32, ptr %11, align 4, !tbaa !42
  %51 = add nsw i32 %49, %50
  %52 = load i32, ptr %10, align 4, !tbaa !42
  %53 = load i32, ptr %12, align 4, !tbaa !42
  %54 = add nsw i32 %52, %53
  %55 = load i32, ptr %11, align 4, !tbaa !42
  %56 = load i32, ptr %12, align 4, !tbaa !42
  call void @_ZN2cv5Rect_IiEC2Eiiii(ptr noundef nonnull align 4 dereferenceable(16) %16, i32 noundef %51, i32 noundef %54, i32 noundef %55, i32 noundef %56)
  %57 = getelementptr inbounds nuw %"class.cv::detail::tracking::contrib_feature::CvHOGEvaluator::Feature", ptr %18, i32 0, i32 0
  %58 = getelementptr inbounds [4 x %"class.cv::Rect_"], ptr %57, i64 0, i64 3
  call void @llvm.memcpy.p0.p0.i64(ptr align 4 %58, ptr align 4 %16, i64 16, i1 false), !tbaa.struct !158
  call void @llvm.lifetime.end.p0(i64 16, ptr %16) #3
  call void @llvm.lifetime.start.p0(i64 4, ptr %17) #3
  store i32 0, ptr %17, align 4, !tbaa !42
  br label %59

59:                                               ; preds = %172, %26
  %60 = load i32, ptr %17, align 4, !tbaa !42
  %61 = icmp slt i32 %60, 4
  br i1 %61, label %63, label %62

62:                                               ; preds = %59
  call void @llvm.lifetime.end.p0(i64 4, ptr %17) #3
  br label %175

63:                                               ; preds = %59
  %64 = getelementptr inbounds nuw %"class.cv::detail::tracking::contrib_feature::CvHOGEvaluator::Feature", ptr %18, i32 0, i32 0
  %65 = load i32, ptr %17, align 4, !tbaa !42
  %66 = sext i32 %65 to i64
  %67 = getelementptr inbounds [4 x %"class.cv::Rect_"], ptr %64, i64 0, i64 %66
  %68 = getelementptr inbounds nuw %"class.cv::Rect_", ptr %67, i32 0, i32 0
  %69 = load i32, ptr %68, align 4, !tbaa !138
  %70 = load i32, ptr %8, align 4, !tbaa !42
  %71 = getelementptr inbounds nuw %"class.cv::detail::tracking::contrib_feature::CvHOGEvaluator::Feature", ptr %18, i32 0, i32 0
  %72 = load i32, ptr %17, align 4, !tbaa !42
  %73 = sext i32 %72 to i64
  %74 = getelementptr inbounds [4 x %"class.cv::Rect_"], ptr %71, i64 0, i64 %73
  %75 = getelementptr inbounds nuw %"class.cv::Rect_", ptr %74, i32 0, i32 1
  %76 = load i32, ptr %75, align 4, !tbaa !140
  %77 = mul nsw i32 %70, %76
  %78 = add nsw i32 %69, %77
  %79 = getelementptr inbounds nuw %"class.cv::detail::tracking::contrib_feature::CvHOGEvaluator::Feature", ptr %18, i32 0, i32 1
  %80 = load i32, ptr %17, align 4, !tbaa !42
  %81 = sext i32 %80 to i64
  %82 = getelementptr inbounds [4 x %struct.anon], ptr %79, i64 0, i64 %81
  %83 = getelementptr inbounds nuw %struct.anon, ptr %82, i32 0, i32 0
  store i32 %78, ptr %83, align 4, !tbaa !192
  %84 = getelementptr inbounds nuw %"class.cv::detail::tracking::contrib_feature::CvHOGEvaluator::Feature", ptr %18, i32 0, i32 0
  %85 = load i32, ptr %17, align 4, !tbaa !42
  %86 = sext i32 %85 to i64
  %87 = getelementptr inbounds [4 x %"class.cv::Rect_"], ptr %84, i64 0, i64 %86
  %88 = getelementptr inbounds nuw %"class.cv::Rect_", ptr %87, i32 0, i32 0
  %89 = load i32, ptr %88, align 4, !tbaa !138
  %90 = getelementptr inbounds nuw %"class.cv::detail::tracking::contrib_feature::CvHOGEvaluator::Feature", ptr %18, i32 0, i32 0
  %91 = load i32, ptr %17, align 4, !tbaa !42
  %92 = sext i32 %91 to i64
  %93 = getelementptr inbounds [4 x %"class.cv::Rect_"], ptr %90, i64 0, i64 %92
  %94 = getelementptr inbounds nuw %"class.cv::Rect_", ptr %93, i32 0, i32 2
  %95 = load i32, ptr %94, align 4, !tbaa !141
  %96 = add nsw i32 %89, %95
  %97 = load i32, ptr %8, align 4, !tbaa !42
  %98 = getelementptr inbounds nuw %"class.cv::detail::tracking::contrib_feature::CvHOGEvaluator::Feature", ptr %18, i32 0, i32 0
  %99 = load i32, ptr %17, align 4, !tbaa !42
  %100 = sext i32 %99 to i64
  %101 = getelementptr inbounds [4 x %"class.cv::Rect_"], ptr %98, i64 0, i64 %100
  %102 = getelementptr inbounds nuw %"class.cv::Rect_", ptr %101, i32 0, i32 1
  %103 = load i32, ptr %102, align 4, !tbaa !140
  %104 = mul nsw i32 %97, %103
  %105 = add nsw i32 %96, %104
  %106 = getelementptr inbounds nuw %"class.cv::detail::tracking::contrib_feature::CvHOGEvaluator::Feature", ptr %18, i32 0, i32 1
  %107 = load i32, ptr %17, align 4, !tbaa !42
  %108 = sext i32 %107 to i64
  %109 = getelementptr inbounds [4 x %struct.anon], ptr %106, i64 0, i64 %108
  %110 = getelementptr inbounds nuw %struct.anon, ptr %109, i32 0, i32 1
  store i32 %105, ptr %110, align 4, !tbaa !194
  %111 = getelementptr inbounds nuw %"class.cv::detail::tracking::contrib_feature::CvHOGEvaluator::Feature", ptr %18, i32 0, i32 0
  %112 = load i32, ptr %17, align 4, !tbaa !42
  %113 = sext i32 %112 to i64
  %114 = getelementptr inbounds [4 x %"class.cv::Rect_"], ptr %111, i64 0, i64 %113
  %115 = getelementptr inbounds nuw %"class.cv::Rect_", ptr %114, i32 0, i32 0
  %116 = load i32, ptr %115, align 4, !tbaa !138
  %117 = load i32, ptr %8, align 4, !tbaa !42
  %118 = getelementptr inbounds nuw %"class.cv::detail::tracking::contrib_feature::CvHOGEvaluator::Feature", ptr %18, i32 0, i32 0
  %119 = load i32, ptr %17, align 4, !tbaa !42
  %120 = sext i32 %119 to i64
  %121 = getelementptr inbounds [4 x %"class.cv::Rect_"], ptr %118, i64 0, i64 %120
  %122 = getelementptr inbounds nuw %"class.cv::Rect_", ptr %121, i32 0, i32 1
  %123 = load i32, ptr %122, align 4, !tbaa !140
  %124 = getelementptr inbounds nuw %"class.cv::detail::tracking::contrib_feature::CvHOGEvaluator::Feature", ptr %18, i32 0, i32 0
  %125 = load i32, ptr %17, align 4, !tbaa !42
  %126 = sext i32 %125 to i64
  %127 = getelementptr inbounds [4 x %"class.cv::Rect_"], ptr %124, i64 0, i64 %126
  %128 = getelementptr inbounds nuw %"class.cv::Rect_", ptr %127, i32 0, i32 3
  %129 = load i32, ptr %128, align 4, !tbaa !142
  %130 = add nsw i32 %123, %129
  %131 = mul nsw i32 %117, %130
  %132 = add nsw i32 %116, %131
  %133 = getelementptr inbounds nuw %"class.cv::detail::tracking::contrib_feature::CvHOGEvaluator::Feature", ptr %18, i32 0, i32 1
  %134 = load i32, ptr %17, align 4, !tbaa !42
  %135 = sext i32 %134 to i64
  %136 = getelementptr inbounds [4 x %struct.anon], ptr %133, i64 0, i64 %135
  %137 = getelementptr inbounds nuw %struct.anon, ptr %136, i32 0, i32 2
  store i32 %132, ptr %137, align 4, !tbaa !195
  %138 = getelementptr inbounds nuw %"class.cv::detail::tracking::contrib_feature::CvHOGEvaluator::Feature", ptr %18, i32 0, i32 0
  %139 = load i32, ptr %17, align 4, !tbaa !42
  %140 = sext i32 %139 to i64
  %141 = getelementptr inbounds [4 x %"class.cv::Rect_"], ptr %138, i64 0, i64 %140
  %142 = getelementptr inbounds nuw %"class.cv::Rect_", ptr %141, i32 0, i32 0
  %143 = load i32, ptr %142, align 4, !tbaa !138
  %144 = getelementptr inbounds nuw %"class.cv::detail::tracking::contrib_feature::CvHOGEvaluator::Feature", ptr %18, i32 0, i32 0
  %145 = load i32, ptr %17, align 4, !tbaa !42
  %146 = sext i32 %145 to i64
  %147 = getelementptr inbounds [4 x %"class.cv::Rect_"], ptr %144, i64 0, i64 %146
  %148 = getelementptr inbounds nuw %"class.cv::Rect_", ptr %147, i32 0, i32 2
  %149 = load i32, ptr %148, align 4, !tbaa !141
  %150 = add nsw i32 %143, %149
  %151 = load i32, ptr %8, align 4, !tbaa !42
  %152 = getelementptr inbounds nuw %"class.cv::detail::tracking::contrib_feature::CvHOGEvaluator::Feature", ptr %18, i32 0, i32 0
  %153 = load i32, ptr %17, align 4, !tbaa !42
  %154 = sext i32 %153 to i64
  %155 = getelementptr inbounds [4 x %"class.cv::Rect_"], ptr %152, i64 0, i64 %154
  %156 = getelementptr inbounds nuw %"class.cv::Rect_", ptr %155, i32 0, i32 1
  %157 = load i32, ptr %156, align 4, !tbaa !140
  %158 = getelementptr inbounds nuw %"class.cv::detail::tracking::contrib_feature::CvHOGEvaluator::Feature", ptr %18, i32 0, i32 0
  %159 = load i32, ptr %17, align 4, !tbaa !42
  %160 = sext i32 %159 to i64
  %161 = getelementptr inbounds [4 x %"class.cv::Rect_"], ptr %158, i64 0, i64 %160
  %162 = getelementptr inbounds nuw %"class.cv::Rect_", ptr %161, i32 0, i32 3
  %163 = load i32, ptr %162, align 4, !tbaa !142
  %164 = add nsw i32 %157, %163
  %165 = mul nsw i32 %151, %164
  %166 = add nsw i32 %150, %165
  %167 = getelementptr inbounds nuw %"class.cv::detail::tracking::contrib_feature::CvHOGEvaluator::Feature", ptr %18, i32 0, i32 1
  %168 = load i32, ptr %17, align 4, !tbaa !42
  %169 = sext i32 %168 to i64
  %170 = getelementptr inbounds [4 x %struct.anon], ptr %167, i64 0, i64 %169
  %171 = getelementptr inbounds nuw %struct.anon, ptr %170, i32 0, i32 3
  store i32 %166, ptr %171, align 4, !tbaa !196
  br label %172

172:                                              ; preds = %63
  %173 = load i32, ptr %17, align 4, !tbaa !42
  %174 = add nsw i32 %173, 1
  store i32 %174, ptr %17, align 4, !tbaa !42
  br label %59, !llvm.loop !197

175:                                              ; preds = %62
  ret void
}