; Function Attrs: mustprogress nofree norecurse nosync nounwind memory(argmem: readwrite) uwtable
define hidden void @_ZN2cv6detail8tracking15contrib_feature14CvHOGEvaluator7FeatureC2Eiiiii(ptr noundef nonnull align 4 captures(none) dereferenceable(128) initializes((0, 64)) %0, i32 noundef %1, i32 noundef %2, i32 noundef %3, i32 noundef %4, i32 noundef %5) unnamed_addr #21 align 2 {
  %7 = getelementptr inbounds nuw i8, ptr %0, i64 64
  store i32 %2, ptr %0, align 4, !tbaa !52
  %.sroa.453.0..sroa_idx = getelementptr inbounds nuw i8, ptr %0, i64 4
  store i32 %3, ptr %.sroa.453.0..sroa_idx, align 4, !tbaa !52
  %.sroa.554.0..sroa_idx = getelementptr inbounds nuw i8, ptr %0, i64 8
  store i32 %4, ptr %.sroa.554.0..sroa_idx, align 4, !tbaa !52
  %.sroa.655.0..sroa_idx = getelementptr inbounds nuw i8, ptr %0, i64 12
  store i32 %5, ptr %.sroa.655.0..sroa_idx, align 4, !tbaa !52
  %8 = add nsw i32 %4, %2
  %9 = getelementptr inbounds nuw i8, ptr %0, i64 16
  store i32 %8, ptr %9, align 4, !tbaa !52
  %.sroa.449.0..sroa_idx = getelementptr inbounds nuw i8, ptr %0, i64 20
  store i32 %3, ptr %.sroa.449.0..sroa_idx, align 4, !tbaa !52
  %.sroa.550.0..sroa_idx = getelementptr inbounds nuw i8, ptr %0, i64 24
  store i32 %4, ptr %.sroa.550.0..sroa_idx, align 4, !tbaa !52
  %.sroa.651.0..sroa_idx = getelementptr inbounds nuw i8, ptr %0, i64 28
  store i32 %5, ptr %.sroa.651.0..sroa_idx, align 4, !tbaa !52
  %10 = add nsw i32 %5, %3
  %11 = getelementptr inbounds nuw i8, ptr %0, i64 32
  store i32 %2, ptr %11, align 4, !tbaa !52
  %.sroa.445.0..sroa_idx = getelementptr inbounds nuw i8, ptr %0, i64 36
  store i32 %10, ptr %.sroa.445.0..sroa_idx, align 4, !tbaa !52
  %.sroa.546.0..sroa_idx = getelementptr inbounds nuw i8, ptr %0, i64 40
  store i32 %4, ptr %.sroa.546.0..sroa_idx, align 4, !tbaa !52
  %.sroa.647.0..sroa_idx = getelementptr inbounds nuw i8, ptr %0, i64 44
  store i32 %5, ptr %.sroa.647.0..sroa_idx, align 4, !tbaa !52
  %12 = getelementptr inbounds nuw i8, ptr %0, i64 48
  store i32 %8, ptr %12, align 4, !tbaa !52
  %.sroa.4.0..sroa_idx = getelementptr inbounds nuw i8, ptr %0, i64 52
  store i32 %10, ptr %.sroa.4.0..sroa_idx, align 4, !tbaa !52
  %.sroa.5.0..sroa_idx = getelementptr inbounds nuw i8, ptr %0, i64 56
  store i32 %4, ptr %.sroa.5.0..sroa_idx, align 4, !tbaa !52
  %.sroa.6.0..sroa_idx = getelementptr inbounds nuw i8, ptr %0, i64 60
  store i32 %5, ptr %.sroa.6.0..sroa_idx, align 4, !tbaa !52
  br label %14

13:                                               ; preds = %14
  ret void

14:                                               ; preds = %6, %14
  %indvars.iv = phi i64 [ 0, %6 ], [ %indvars.iv.next, %14 ]
  %15 = getelementptr inbounds nuw [4 x %"class.cv::Rect_"], ptr %0, i64 0, i64 %indvars.iv
  %16 = load i32, ptr %15, align 4, !tbaa !151
  %17 = getelementptr inbounds nuw i8, ptr %15, i64 4
  %18 = load i32, ptr %17, align 4, !tbaa !153
  %19 = mul nsw i32 %18, %1
  %20 = add nsw i32 %19, %16
  %21 = getelementptr inbounds nuw [4 x %struct.anon], ptr %7, i64 0, i64 %indvars.iv
  store i32 %20, ptr %21, align 4, !tbaa !185
  %22 = getelementptr inbounds nuw i8, ptr %15, i64 8
  %23 = load i32, ptr %22, align 4, !tbaa !155
  %24 = add nsw i32 %23, %16
  %25 = add nsw i32 %24, %19
  %26 = getelementptr inbounds nuw i8, ptr %21, i64 4
  store i32 %25, ptr %26, align 4, !tbaa !187
  %27 = getelementptr inbounds nuw i8, ptr %15, i64 12
  %28 = load i32, ptr %27, align 4, !tbaa !154
  %29 = add nsw i32 %28, %18
  %30 = mul nsw i32 %29, %1
  %31 = add nsw i32 %30, %16
  %32 = getelementptr inbounds nuw i8, ptr %21, i64 8
  store i32 %31, ptr %32, align 4, !tbaa !188
  %33 = add nsw i32 %30, %24
  %34 = getelementptr inbounds nuw i8, ptr %21, i64 12
  store i32 %33, ptr %34, align 4, !tbaa !189
  %indvars.iv.next = add nuw nsw i64 %indvars.iv, 1
  %exitcond.not = icmp eq i64 %indvars.iv.next, 4
  br i1 %exitcond.not, label %13, label %14, !llvm.loop !190
}